target datalayout = "e-m:e-p270:32:32-p271:32:32-p272:64:64-i64:64-i128:128-f80:128-n8:16:32:64-S128"
target triple = "x86_64-pc-linux-gnu"

%"class.cv::BaseImageDecoder" = type { ptr, i32, i32, i32, i32, %"class.std::__cxx11::basic_string", %"class.std::__cxx11::basic_string", %"class.cv::Mat", i8, i8, [6 x i8], %"class.cv::ExifReader", i64, %"struct.cv::Animation" }
%"class.std::__cxx11::basic_string" = type { %"struct.std::__cxx11::basic_string<char>::_Alloc_hider", i64, %union.anon }
%"struct.std::__cxx11::basic_string<char>::_Alloc_hider" = type { ptr }
%union.anon = type { i64, [8 x i8] }
%"class.cv::Mat" = type { i32, i32, i32, i32, ptr, ptr, ptr, ptr, ptr, ptr, %"struct.cv::MatSize", %"struct.cv::MatStep" }
%"struct.cv::MatSize" = type { ptr }
%"struct.cv::MatStep" = type { ptr, [2 x i64] }
%"class.cv::ExifReader" = type <{ %"class.std::vector", %"class.std::map", i32, [4 x i8] }>
%"class.std::vector" = type { %"struct.std::_Vector_base" }
%"struct.std::_Vector_base" = type { %"struct.std::_Vector_base<unsigned char, std::allocator<unsigned char>>::_Vector_impl" }
%"struct.std::_Vector_base<unsigned char, std::allocator<unsigned char>>::_Vector_impl" = type { %"struct.std::_Vector_base<unsigned char, std::allocator<unsigned char>>::_Vector_impl_data" }
%"struct.std::_Vector_base<unsigned char, std::allocator<unsigned char>>::_Vector_impl_data" = type { ptr, ptr, ptr }
%"class.std::map" = type { %"class.std::_Rb_tree" }
%"class.std::_Rb_tree" = type { %"struct.std::_Rb_tree<int, std::pair<const int, cv::ExifEntry_t>, std::_Select1st<std::pair<const int, cv::ExifEntry_t>>, std::less<int>>::_Rb_tree_impl" }
%"struct.std::_Rb_tree<int, std::pair<const int, cv::ExifEntry_t>, std::_Select1st<std::pair<const int, cv::ExifEntry_t>>, std::less<int>>::_Rb_tree_impl" = type { [8 x i8], %"struct.std::_Rb_tree_header" }
%"struct.std::_Rb_tree_header" = type { %"struct.std::_Rb_tree_node_base", i64 }
%"struct.std::_Rb_tree_node_base" = type { i32, ptr, ptr, ptr }
%"struct.cv::Animation" = type { i32, %"class.cv::Scalar_", %"class.std::vector.6", %"class.std::vector.11" }
%"class.cv::Scalar_" = type { %"class.cv::Vec" }
%"class.cv::Vec" = type { %"class.cv::Matx" }
%"class.cv::Matx" = type { [4 x double] }
%"class.std::vector.6" = type { %"struct.std::_Vector_base.7" }
%"struct.std::_Vector_base.7" = type { %"struct.std::_Vector_base<int, std::allocator<int>>::_Vector_impl" }
%"struct.std::_Vector_base<int, std::allocator<int>>::_Vector_impl" = type { %"struct.std::_Vector_base<int, std::allocator<int>>::_Vector_impl_data" }
%"struct.std::_Vector_base<int, std::allocator<int>>::_Vector_impl_data" = type { ptr, ptr, ptr }
%"class.std::vector.11" = type { %"struct.std::_Vector_base.12" }
%"struct.std::_Vector_base.12" = type { %"struct.std::_Vector_base<cv::Mat, std::allocator<cv::Mat>>::_Vector_impl" }
%"struct.std::_Vector_base<cv::Mat, std::allocator<cv::Mat>>::_Vector_impl" = type { %"struct.std::_Vector_base<cv::Mat, std::allocator<cv::Mat>>::_Vector_impl_data" }
%"struct.std::_Vector_base<cv::Mat, std::allocator<cv::Mat>>::_Vector_impl_data" = type { ptr, ptr, ptr }
%"class.cv::JpegDecoder" = type { %"class.cv::BaseImageDecoder", ptr, ptr }
%"struct.cv::JpegState" = type { %struct.jpeg_decompress_struct, %"struct.cv::JpegErrorMgr", %"struct.cv::JpegSource" }
%struct.jpeg_decompress_struct = type { ptr, ptr, ptr, ptr, i32, i32, ptr, i32, i32, i32, i32, i32, i32, i32, double, i32, i32, i32, i32, i32, i32, i32, i32, i32, i32, i32, i32, i32, i32, i32, i32, i32, i32, ptr, i32, i32, i32, i32, i32, ptr, [4 x ptr], [4 x ptr], [4 x ptr], i32, ptr, i32, i32, i32, [16 x i8], [16 x i8], [16 x i8], i32, i32, i8, i8, i8, i16, i16, i32, i8, i32, ptr, i32, i32, i32, i32, i32, ptr, i32, [4 x ptr], i32, i32, i32, [10 x i32], i32, i32, i32, i32, i32, ptr, i32, i32, ptr, ptr, ptr, ptr, ptr, ptr, ptr, ptr, ptr, ptr, ptr }
%"struct.cv::JpegErrorMgr" = type { %struct.jpeg_error_mgr, [1 x %struct.__jmp_buf_tag] }
%struct.jpeg_error_mgr = type { ptr, ptr, ptr, ptr, ptr, i32, %union.anon.16, i32, i64, ptr, i32, ptr, i32, i32 }
%union.anon.16 = type { [8 x i32], [48 x i8] }
%struct.__jmp_buf_tag = type { [8 x i64], i32, %struct.__sigset_t }
%struct.__sigset_t = type { [16 x i64] }
%"struct.cv::JpegSource" = type { %struct.jpeg_source_mgr, i32 }
%struct.jpeg_source_mgr = type { ptr, i64, ptr, ptr, ptr, ptr, ptr }

; Function Attrs: mustprogress uwtable
define hidden void @_ZN2cv11JpegDecoder5closeEv(ptr noundef nonnull align 8 dereferenceable(384) %0) #4 align 2 {
  %2 = alloca ptr, align 8
  %3 = alloca ptr, align 8
  store ptr %0, ptr %2, align 8, !tbaa !3
  %4 = load ptr, ptr %2, align 8
  %5 = getelementptr inbounds nuw %"class.cv::JpegDecoder", ptr %4, i32 0, i32 2
  %6 = load ptr, ptr %5, align 8, !tbaa !10
  %7 = icmp ne ptr %6, null
  br i1 %7, label %8, label %18

8:                                                ; preds = %1
  call void @llvm.lifetime.start.p0(i64 8, ptr %3) #3
  %9 = getelementptr inbounds nuw %"class.cv::JpegDecoder", ptr %4, i32 0, i32 2
  %10 = load ptr, ptr %9, align 8, !tbaa !10
  store ptr %10, ptr %3, align 8, !tbaa !62
  %11 = load ptr, ptr %3, align 8, !tbaa !62
  %12 = getelementptr inbounds nuw %"struct.cv::JpegState", ptr %11, i32 0, i32 0
  call void @jpeg_destroy_decompress(ptr noundef %12)
  %13 = load ptr, ptr %3, align 8, !tbaa !62
  %14 = icmp eq ptr %13, null
  br i1 %14, label %16, label %15

15:                                               ; preds = %8
  call void @_ZdlPv(ptr noundef %13) #23
  br label %16

16:                                               ; preds = %15, %8
  %17 = getelementptr inbounds nuw %"class.cv::JpegDecoder", ptr %4, i32 0, i32 2
  store ptr null, ptr %17, align 8, !tbaa !10
  call void @llvm.lifetime.end.p0(i64 8, ptr %3) #3
  br label %18

18:                                               ; preds = %16, %1
  %19 = getelementptr inbounds nuw %"class.cv::JpegDecoder", ptr %4, i32 0, i32 1
  %20 = load ptr, ptr %19, align 8, !tbaa !55
  %21 = icmp ne ptr %20, null
  br i1 %21, label %22, label %27

22:                                               ; preds = %18
  %23 = getelementptr inbounds nuw %"class.cv::JpegDecoder", ptr %4, i32 0, i32 1
  %24 = load ptr, ptr %23, align 8, !tbaa !55
  %25 = call i32 @fclose(ptr noundef %24)
  %26 = getelementptr inbounds nuw %"class.cv::JpegDecoder", ptr %4, i32 0, i32 1
  store ptr null, ptr %26, align 8, !tbaa !55
  br label %27

27:                                               ; preds = %22, %18
  %28 = getelementptr inbounds nuw %"class.cv::BaseImageDecoder", ptr %4, i32 0, i32 2
  store i32 0, ptr %28, align 4, !tbaa !64
  %29 = getelementptr inbounds nuw %"class.cv::BaseImageDecoder", ptr %4, i32 0, i32 1
  store i32 0, ptr %29, align 8, !tbaa !65
  %30 = getelementptr inbounds nuw %"class.cv::BaseImageDecoder", ptr %4, i32 0, i32 3
  store i32 -1, ptr %30, align 8, !tbaa !66
  ret void
}