; Function Attrs: mustprogress uwtable
define hidden void @_ZN2cv11JpegDecoder5closeEv(ptr noundef nonnull align 8 captures(none) dereferenceable(384) initializes((8, 20)) %0) local_unnamed_addr #3 align 2 {
  %2 = getelementptr inbounds nuw i8, ptr %0, i64 376
  %3 = load ptr, ptr %2, align 8, !tbaa !58
  %.not = icmp eq ptr %3, null
  br i1 %.not, label %5, label %4

4:                                                ; preds = %1
  tail call void @jpeg_destroy_decompress(ptr noundef nonnull %3)
  tail call void @_ZdlPv(ptr noundef nonnull %3) #25
  store ptr null, ptr %2, align 8, !tbaa !58
  br label %5

5:                                                ; preds = %4, %1
  %6 = getelementptr inbounds nuw i8, ptr %0, i64 368
  %7 = load ptr, ptr %6, align 8, !tbaa !61
  %.not4 = icmp eq ptr %7, null
  br i1 %.not4, label %10, label %8

8:                                                ; preds = %5
  %9 = tail call i32 @fclose(ptr noundef nonnull %7)
  store ptr null, ptr %6, align 8, !tbaa !61
  br label %10

10:                                               ; preds = %8, %5
  %11 = getelementptr inbounds nuw i8, ptr %0, i64 12
  store i32 0, ptr %11, align 4, !tbaa !62
  %12 = getelementptr inbounds nuw i8, ptr %0, i64 8
  store i32 0, ptr %12, align 8, !tbaa !63
  %13 = getelementptr inbounds nuw i8, ptr %0, i64 16
  store i32 -1, ptr %13, align 8, !tbaa !64
  ret void
}